target datalayout = "e-m:e-p270:32:32-p271:32:32-p272:64:64-i64:64-i128:128-f80:128-n8:16:32:64-S128"
target triple = "x86_64-pc-linux-gnu"

%struct.SDL_Process = type { i8, i8, i32, i32, ptr }

@.str.33 = private unnamed_addr constant [21 x i8] c"SDL.internal.process\00", align 1

; Function Attrs: nounwind uwtable
define internal zeroext i1 @SetupStream(ptr noundef %0, i32 noundef %1, ptr noundef %2, ptr noundef %3) #0 {
  %5 = alloca i1, align 1
  %6 = alloca ptr, align 8
  %7 = alloca i32, align 4
  %8 = alloca ptr, align 8
  %9 = alloca ptr, align 8
  %10 = alloca ptr, align 8
  %11 = alloca i32, align 4
  store ptr %0, ptr %6, align 8
  store i32 %1, ptr %7, align 4
  store ptr %2, ptr %8, align 8
  store ptr %3, ptr %9, align 8
  %12 = load i32, ptr %7, align 4
  %13 = load i32, ptr %7, align 4
  %14 = call i32 (i32, i32, ...) @fcntl(i32 noundef %13, i32 noundef 3)
  %15 = or i32 %14, 2048
  %16 = call i32 (i32, i32, ...) @fcntl(i32 noundef %12, i32 noundef 4, i32 noundef %15)
  call void @llvm.lifetime.start.p0(i64 8, ptr %10) #9
  %17 = load i32, ptr %7, align 4
  %18 = call ptr @SDL_IOFromFD(i32 noundef %17, i1 noundef zeroext true)
  store ptr %18, ptr %10, align 8
  %19 = load ptr, ptr %10, align 8
  %20 = icmp ne ptr %19, null
  br i1 %20, label %22, label %21

21:                                               ; preds = %4
  store i1 false, ptr %5, align 1
  store i32 1, ptr %11, align 4
  br label %34

22:                                               ; preds = %4
  %23 = load ptr, ptr %10, align 8
  %24 = call i32 @SDL_GetIOProperties_REAL(ptr noundef %23)
  %25 = load ptr, ptr %6, align 8
  %26 = load ptr, ptr %9, align 8
  %27 = call zeroext i1 @SDL_SetPointerPropertyWithCleanup_REAL(i32 noundef %24, ptr noundef @.str.33, ptr noundef %25, ptr noundef @CleanupStream, ptr noundef %26)
  %28 = load ptr, ptr %6, align 8
  %29 = getelementptr inbounds nuw %struct.SDL_Process, ptr %28, i32 0, i32 3
  %30 = load i32, ptr %29, align 8
  %31 = load ptr, ptr %9, align 8
  %32 = load ptr, ptr %10, align 8
  %33 = call zeroext i1 @SDL_SetPointerProperty_REAL(i32 noundef %30, ptr noundef %31, ptr noundef %32)
  store i1 true, ptr %5, align 1
  store i32 1, ptr %11, align 4
  br label %34

34:                                               ; preds = %22, %21
  call void @llvm.lifetime.end.p0(i64 8, ptr %10) #9
  %35 = load i1, ptr %5, align 1
  ret i1 %35
}