; Function Attrs: nounwind uwtable
define internal fastcc noundef zeroext i1 @SetupStream(ptr noundef %0, i32 noundef %1, ptr noundef %2) unnamed_addr #0 {
  %4 = tail call i32 (i32, i32, ...) @fcntl(i32 noundef %1, i32 noundef 3) #10
  %5 = or i32 %4, 2048
  %6 = tail call i32 (i32, i32, ...) @fcntl(i32 noundef %1, i32 noundef 4, i32 noundef %5) #10
  %7 = tail call ptr @SDL_IOFromFD(i32 noundef %1, i1 noundef zeroext true) #10
  %.not = icmp ne ptr %7, null
  br i1 %.not, label %8, label %14

8:                                                ; preds = %3
  %9 = tail call i32 @SDL_GetIOProperties_REAL(ptr noundef nonnull %7) #10
  %10 = tail call zeroext i1 @SDL_SetPointerPropertyWithCleanup_REAL(i32 noundef %9, ptr noundef nonnull @.str.33, ptr noundef %0, ptr noundef nonnull @CleanupStream, ptr noundef %2) #10
  %11 = getelementptr inbounds nuw i8, ptr %0, i64 8
  %12 = load i32, ptr %11, align 8
  %13 = tail call zeroext i1 @SDL_SetPointerProperty_REAL(i32 noundef %12, ptr noundef %2, ptr noundef nonnull %7) #10
  br label %14

14:                                               ; preds = %3, %8
  ret i1 %.not
}